 UefiResearch1

 Timestamp is 68f807ff (Wed Oct 22 00:23:59 2025)

 Preferred load address is 0000000000000000

 Start         Length     Name                   Class
 0001:00000000 00000014H .text                   CODE
 0001:00000014 00001b91H .text$mn                CODE
 0002:00000000 00000000H .data                   DATA
 0002:00000000 00000480H .rdata                  DATA
 0002:00000480 00000138H .bss                    DATA
 0002:000005b8 00000018H .rdata$voltmd           DATA
 0002:000005d0 00000098H .rdata$zzzdbg           DATA
 0003:00000000 00000084H .pdata                  DATA
 0004:00000000 000000b4H .xdata                  DATA

  Address         Publics by Value              Rva+Base               Lib:Object

 0000:00000000       __AbsoluteZero             0000000000000000     <absolute>
 0000:00000000       __arm64x_extra_rfe_table   0000000000000000     <absolute>
 0000:00000000       __arm64x_extra_rfe_table_size 0000000000000000     <absolute>
 0000:00000000       __arm64x_native_entrypoint 0000000000000000     <absolute>
 0000:00000000       __arm64x_redirection_metadata 0000000000000000     <absolute>
 0000:00000000       __arm64x_redirection_metadata_count 0000000000000000     <absolute>
 0000:00000000       __dynamic_value_reloc_table 0000000000000000     <absolute>
 0000:00000000       __enclave_config           0000000000000000     <absolute>
 0000:00000000       __guard_check_icall_a64n_fptr 0000000000000000     <absolute>
 0000:00000000       __guard_eh_cont_count      0000000000000000     <absolute>
 0000:00000000       __guard_eh_cont_table      0000000000000000     <absolute>
 0000:00000000       __guard_fids_count         0000000000000000     <absolute>
 0000:00000000       __guard_fids_table         0000000000000000     <absolute>
 0000:00000000       __guard_flags              0000000000000000     <absolute>
 0000:00000000       __guard_iat_count          0000000000000000     <absolute>
 0000:00000000       __guard_iat_table          0000000000000000     <absolute>
 0000:00000000       __guard_longjmp_count      0000000000000000     <absolute>
 0000:00000000       __guard_longjmp_table      0000000000000000     <absolute>
 0000:00000000       __hybrid_auxiliary_delayload_iat 0000000000000000     <absolute>
 0000:00000000       __hybrid_auxiliary_delayload_iat_copy 0000000000000000     <absolute>
 0000:00000000       __hybrid_auxiliary_iat     0000000000000000     <absolute>
 0000:00000000       __hybrid_auxiliary_iat_copy 0000000000000000     <absolute>
 0000:00000000       __hybrid_code_map          0000000000000000     <absolute>
 0000:00000000       __hybrid_code_map_count    0000000000000000     <absolute>
 0000:00000000       __hybrid_image_info_bitfield 0000000000000000     <absolute>
 0000:00000000       __x64_code_ranges_to_entry_points 0000000000000000     <absolute>
 0000:00000000       __x64_code_ranges_to_entry_points_count 0000000000000000     <absolute>
 0000:00000000       __ImageBase                0000000000000000     <linker-defined>
 0001:00000000       __report_rangecheckfailure 0000000000001000     StackCheckLibNull:StackCheckFunctionsMsvc.obj
 0001:00000001       __GSHandlerCheck           0000000000001001     StackCheckLibNull:StackCheckFunctionsMsvc.obj
 0001:00000002       __security_check_cookie    0000000000001002     StackCheckLibNull:StackCheckFunctionsMsvc.obj
 0001:00000010       CpuPause                   0000000000001010     BaseLib:CpuPause.obj
 0001:00000014       _ModuleEntryPoint          0000000000001014 f   UefiApplicationEntryPoint:ApplicationEntryPoint.obj
 0001:000000a8       UefiMain                   00000000000010a8 f   UefiResearch1:main.obj
 0001:00000364       StrnLenS                   0000000000001364 f   BaseLib:SafeString.obj
 0001:00000398       StrCpyS                    0000000000001398 f   BaseLib:SafeString.obj
 0001:00000434       InternalMemCopyMem         0000000000001434 f   BaseMemoryLib:CopyMem.obj
 0001:00000508       InternalMemSetMem          0000000000001508 f   BaseMemoryLib:SetMem.obj
 0001:0000057c       ExitBootServicesCallback   000000000000157c f   UefiDebugLibConOut:DebugLibConstructor.obj
 0001:00000584       InternalAllocatePool       0000000000001584 f   UefiMemoryAllocationLib:MemoryAllocationLib.obj
 0001:000005c0       InternalAllocateZeroPool   00000000000015c0 f   UefiMemoryAllocationLib:MemoryAllocationLib.obj
 0001:000005f0       UefiLibGetStringWidth      00000000000015f0 f   UefiLib:Console.obj
 0001:00000698       CreatePopUp                0000000000001698 f   UefiLib:Console.obj
 0001:00000bb0       InternalPrint              0000000000001bb0 f   UefiLib:UefiLibPrint.obj
 0001:00000c58       Print                      0000000000001c58 f   UefiLib:UefiLibPrint.obj
 0001:00000c88       BasePrintLibFillBuffer     0000000000001c88 f   BasePrintLib:PrintLibInternal.obj
 0001:00000cbc       BasePrintLibSPrintMarker   0000000000001cbc f   BasePrintLib:PrintLibInternal.obj
 0001:00001b80       BasePrintLibSPrint         0000000000002b80 f   BasePrintLib:PrintLibInternal.obj
 0002:00000000       ??_C@_17LGKOMLJ@?$AA?4?$AA?4?$AA?4@ 0000000000003000     UefiLib:Console.obj
 0002:00000008       ??_C@_0O@MLOLIMFM@?$DMnull?5string?$DO@ 0000000000003008     BasePrintLib:PrintLibInternal.obj
 0002:00000018       ??_C@_0M@BJJDNPHK@?$DMnull?5guid?$DO@ 0000000000003018     BasePrintLib:PrintLibInternal.obj
 0002:00000028       ??_C@_0DB@PMLHLBMO@?$CF08x?9?$CF04x?9?$CF04x?9?$CF02x?$CF02x?9?$CF02x?$CF02@ 0000000000003028     BasePrintLib:PrintLibInternal.obj
 0002:00000060       ??_C@_0M@LHGBCIKM@?$DMnull?5time?$DO@ 0000000000003060     BasePrintLib:PrintLibInternal.obj
 0002:00000070       ??_C@_0BK@FCPKCIDD@?$CF02d?1?$CF02d?1?$CF04d?5?5?$CF02d?3?$CF02d@ 0000000000003070     BasePrintLib:PrintLibInternal.obj
 0002:0000008c       ??_C@_04JIMNDDED@?$CF08X@  000000000000308c     BasePrintLib:PrintLibInternal.obj
 0002:00000094       ??_C@_02PCIJFNDE@?$AN?6@   0000000000003094     BasePrintLib:PrintLibInternal.obj
 0002:00000098       ??_C@_01LIIJDEN@?$AN@      0000000000003098     BasePrintLib:PrintLibInternal.obj
 0002:000000a0       mWarningString             00000000000030a0     BasePrintLib:PrintLibInternal.obj
 0002:00000170       mErrorString               0000000000003170     BasePrintLib:PrintLibInternal.obj
 0002:00000450       mHexStr                    0000000000003450     BasePrintLib:PrintLibInternal.obj
 0002:00000480       ?result@?1??decrypt@?$XorStr@_W$0BP@@@QEBAPEA_WXZ@4PA_WA 0000000000003480     UefiResearch1:xor_str.obj
 0002:000004c0       ?result@?1??decrypt@?$XorStr@_W$0CC@@@QEBAPEA_WXZ@4PA_WA 00000000000034c0     UefiResearch1:xor_str.obj
 0002:00000510       ?result@?1??decrypt@?$XorStr@_W$0BM@@@QEBAPEA_WXZ@4PA_WA 0000000000003510     UefiResearch1:xor_str.obj
 0002:00000550       ?result@?1??decrypt@?$XorStr@_W$0BG@@@QEBAPEA_WXZ@4PA_WA 0000000000003550     UefiResearch1:xor_str.obj
 0002:0000057c       mPostEBS                   000000000000357c     UefiDebugLibConOut:DebugLibConstructor.obj
 0002:00000580       gST                        0000000000003580     UefiBootServicesTableLib:UefiBootServicesTableLib.obj
 0002:00000588       gImageHandle               0000000000003588     UefiBootServicesTableLib:UefiBootServicesTableLib.obj
 0002:00000590       gBS                        0000000000003590     UefiBootServicesTableLib:UefiBootServicesTableLib.obj
 0002:00000598       gRT                        0000000000003598     UefiRuntimeServicesTableLib:UefiRuntimeServicesTableLib.obj
 0002:000005a8       __security_cookie          00000000000035a8     StackCheckLibNull:StackCheckLibNullMsvc.obj
 0002:000005b0       mDebugST                   00000000000035b0     <common>
 0002:000005b8       __volatile_metadata        00000000000035b8     <linker-defined>

 entry point at        0001:00000014

 Static symbols

 0002:000005a0       mExitBootServicesEvent     00000000000035a0     UefiDebugLibConOut:DebugLibConstructor.obj
 0004:00000000       $unwind$_ModuleEntryPoint  0000000000005000     UefiApplicationEntryPoint:ApplicationEntryPoint.obj
 0004:0000000c       $unwind$UefiMain           000000000000500c     UefiResearch1:main.obj
 0004:00000028       $unwind$StrCpyS            0000000000005028     BaseLib:SafeString.obj
 0004:00000028       $unwind$InternalAllocateZeroPool 0000000000005028     UefiMemoryAllocationLib:MemoryAllocationLib.obj
 0004:00000030       $unwind$InternalAllocatePool 0000000000005030     UefiMemoryAllocationLib:MemoryAllocationLib.obj
 0004:00000038       $unwind$UefiLibGetStringWidth 0000000000005038     UefiLib:Console.obj
 0004:0000004c       $unwind$CreatePopUp        000000000000504c     UefiLib:Console.obj
 0004:0000006c       $unwind$InternalPrint      000000000000506c     UefiLib:UefiLibPrint.obj
 0004:00000080       $unwind$Print              0000000000005080     UefiLib:UefiLibPrint.obj
 0004:00000088       $unwind$BasePrintLibSPrintMarker 0000000000005088     BasePrintLib:PrintLibInternal.obj
 0004:000000ac       $unwind$BasePrintLibSPrint 00000000000050ac     BasePrintLib:PrintLibInternal.obj
